; Function Attrs: mustprogress nounwind uwtable
define hidden void @_ZN20JvmtiEventController8vm_startEv() local_unnamed_addr #3 align 2 {
  %1 = load ptr, ptr @_ZN12JvmtiEnvBase17_head_environmentE, align 8
  %.not = icmp eq ptr %1, null
  br i1 %.not, label %_ZN11MutexLockerD2Ev.exit, label %2

2:                                                ; preds = %0
  %3 = load ptr, ptr @JvmtiThreadState_lock, align 8
  %.not.i.i = icmp eq ptr %3, null
  br i1 %.not.i.i, label %_ZN11MutexLockerC2EP5MutexNS0_18SafepointCheckFlagE.exit.thread, label %4

_ZN11MutexLockerC2EP5MutexNS0_18SafepointCheckFlagE.exit.thread: ; preds = %2
  tail call void @_ZN27JvmtiEventControllerPrivate17recompute_enabledEv()
  br label %_ZN11MutexLockerD2Ev.exit

4:                                                ; preds = %2
  tail call void @_ZN5Mutex4lockEv(ptr noundef nonnull align 8 dereferenceable(104) %3) #15
  tail call void @_ZN27JvmtiEventControllerPrivate17recompute_enabledEv()
  tail call void @_ZN5Mutex6unlockEv(ptr noundef nonnull align 8 dereferenceable(104) %3) #15
  br label %_ZN11MutexLockerD2Ev.exit

_ZN11MutexLockerD2Ev.exit:                        ; preds = %4, %_ZN11MutexLockerC2EP5MutexNS0_18SafepointCheckFlagE.exit.thread, %0
  ret void
}